; Function Attrs: null_pointer_is_valid sspstrong uwtable
define internal range(i32 -268435456, 268435456) i32 @dissect_SL_ConfigDedicatedEUTRA_Info_PDU(ptr noundef %0, ptr noundef %1, ptr noundef %2, ptr readnone captures(none) %3) #0 {
  %5 = alloca ptr, align 8
  %6 = alloca %struct._asn1_ctx_t, align 8
  call void @llvm.lifetime.start.p0(i64 208, ptr nonnull %6) #6
  call void @asn1_ctx_init(ptr noundef nonnull %6, i32 noundef 1, i1 noundef zeroext true, ptr noundef %1)
  %7 = load i32, ptr @hf_f1ap_SL_ConfigDedicatedEUTRA_Info_PDU, align 4
  call void @llvm.lifetime.start.p0(i64 8, ptr nonnull %5) #6
  store ptr null, ptr %5, align 8
  %8 = call i32 @dissect_per_octet_string(ptr noundef %0, i32 noundef 0, ptr noundef nonnull %6, ptr noundef %2, i32 noundef %7, i32 noundef -1, i32 noundef -1, i1 noundef zeroext false, ptr noundef nonnull %5)
  %9 = load ptr, ptr %5, align 8
  %10 = icmp ne ptr %9, null
  %11 = load ptr, ptr @lte_rrc_conn_reconf_handle, align 8
  %12 = icmp ne ptr %11, null
  %or.cond.i = select i1 %10, i1 %12, i1 false
  br i1 %or.cond.i, label %13, label %dissect_f1ap_SL_ConfigDedicatedEUTRA_Info.exit

13:                                               ; preds = %4
  %14 = getelementptr inbounds nuw i8, ptr %6, i64 24
  %15 = load ptr, ptr %14, align 8
  %16 = load i32, ptr @ett_f1ap_SL_ConfigDedicatedEUTRA_Info, align 4
  %17 = call ptr @proto_item_add_subtree(ptr noundef %15, i32 noundef %16)
  %18 = load ptr, ptr %5, align 8
  %19 = getelementptr inbounds nuw i8, ptr %6, i64 16
  %20 = load ptr, ptr %19, align 8
  %21 = call i32 @dissect_nr_rrc_SL_ConfigDedicatedEUTRA_Info_r16_PDU(ptr noundef %18, ptr noundef %20, ptr noundef %17, ptr noundef null)
  br label %dissect_f1ap_SL_ConfigDedicatedEUTRA_Info.exit

dissect_f1ap_SL_ConfigDedicatedEUTRA_Info.exit:   ; preds = %4, %13
  call void @llvm.lifetime.end.p0(i64 8, ptr nonnull %5) #6
  %22 = add i32 %8, 7
  %23 = ashr i32 %22, 3
  call void @llvm.lifetime.end.p0(i64 208, ptr nonnull %6) #6
  ret i32 %23
}